target datalayout = "e-m:e-p270:32:32-p271:32:32-p272:64:64-i64:64-i128:128-f80:128-n8:16:32:64-S128"
target triple = "x86_64-pc-linux-gnu"

%"class.icu_77::Locale" = type <{ %"class.icu_77::UObject", [12 x i8], [6 x i8], [4 x i8], [2 x i8], i32, [4 x i8], ptr, [157 x i8], [3 x i8], ptr, i8, [7 x i8] }>
%"class.icu_77::UObject" = type { ptr }

; Function Attrs: inlinehint mustprogress nounwind uwtable
define internal noundef signext i8 @_ZL9U_FAILURE10UErrorCode(i32 noundef %0) #2 {
  %2 = alloca i32, align 4
  store i32 %0, ptr %2, align 4, !tbaa !15
  %3 = load i32, ptr %2, align 4, !tbaa !15
  %4 = icmp sgt i32 %3, 0
  %5 = zext i1 %4 to i8
  ret i8 %5
}

; Function Attrs: mustprogress uwtable
define ptr @ulocbld_buildULocale_77(ptr noundef %0, ptr noundef %1) #1 personality ptr @__gxx_personality_v0 {
  %3 = alloca ptr, align 8
  %4 = alloca ptr, align 8
  %5 = alloca ptr, align 8
  %6 = alloca %"class.icu_77::Locale", align 8
  %7 = alloca ptr, align 8
  %8 = alloca i32, align 4
  %9 = alloca i32, align 4
  %10 = alloca ptr, align 8
  store ptr %0, ptr %4, align 8, !tbaa !23
  store ptr %1, ptr %5, align 8, !tbaa !22
  %11 = load ptr, ptr %4, align 8, !tbaa !23
  %12 = icmp eq ptr %11, null
  br i1 %12, label %13, label %15

13:                                               ; preds = %2
  %14 = load ptr, ptr %5, align 8, !tbaa !22
  store i32 1, ptr %14, align 4, !tbaa !15
  store ptr null, ptr %3, align 8
  br label %44

15:                                               ; preds = %2
  call void @llvm.lifetime.start.p0(i64 224, ptr %6) #11
  %16 = load ptr, ptr %4, align 8, !tbaa !23
  %17 = load ptr, ptr %5, align 8, !tbaa !22
  call void @_ZN6icu_7713LocaleBuilder5buildER10UErrorCode(ptr dead_on_unwind writable sret(%"class.icu_77::Locale") align 8 %6, ptr noundef nonnull align 8 dereferenceable(48) %16, ptr noundef nonnull align 4 dereferenceable(4) %17)
  %18 = load ptr, ptr %5, align 8, !tbaa !22
  %19 = load i32, ptr %18, align 4, !tbaa !15
  %20 = invoke noundef signext i8 @_ZL9U_FAILURE10UErrorCode(i32 noundef %19)
          to label %21 unwind label %24

21:                                               ; preds = %15
  %22 = icmp ne i8 %20, 0
  br i1 %22, label %23, label %28

23:                                               ; preds = %21
  store ptr null, ptr %3, align 8
  store i32 1, ptr %9, align 4
  br label %42

24:                                               ; preds = %15
  %25 = landingpad { ptr, i32 }
          cleanup
  %26 = extractvalue { ptr, i32 } %25, 0
  store ptr %26, ptr %7, align 8
  %27 = extractvalue { ptr, i32 } %25, 1
  store i32 %27, ptr %8, align 4
  br label %43

28:                                               ; preds = %21
  call void @llvm.lifetime.start.p0(i64 8, ptr %10) #11
  %29 = invoke noundef ptr @_ZNK6icu_776Locale5cloneEv(ptr noundef nonnull align 8 dereferenceable(217) %6)
          to label %30 unwind label %35

30:                                               ; preds = %28
  store ptr %29, ptr %10, align 8, !tbaa !35
  %31 = load ptr, ptr %10, align 8, !tbaa !35
  %32 = icmp eq ptr %31, null
  br i1 %32, label %33, label %39

33:                                               ; preds = %30
  %34 = load ptr, ptr %5, align 8, !tbaa !22
  store i32 7, ptr %34, align 4, !tbaa !15
  store ptr null, ptr %3, align 8
  store i32 1, ptr %9, align 4
  br label %41

35:                                               ; preds = %28
  %36 = landingpad { ptr, i32 }
          cleanup
  %37 = extractvalue { ptr, i32 } %36, 0
  store ptr %37, ptr %7, align 8
  %38 = extractvalue { ptr, i32 } %36, 1
  store i32 %38, ptr %8, align 4
  call void @llvm.lifetime.end.p0(i64 8, ptr %10) #11
  br label %43

39:                                               ; preds = %30
  %40 = load ptr, ptr %10, align 8, !tbaa !35
  store ptr %40, ptr %3, align 8
  store i32 1, ptr %9, align 4
  br label %41

41:                                               ; preds = %39, %33
  call void @llvm.lifetime.end.p0(i64 8, ptr %10) #11
  br label %42

42:                                               ; preds = %41, %23
  call void @_ZN6icu_776LocaleD1Ev(ptr noundef nonnull align 8 dereferenceable(217) %6) #11
  call void @llvm.lifetime.end.p0(i64 224, ptr %6) #11
  br label %44

43:                                               ; preds = %35, %24
  call void @_ZN6icu_776LocaleD1Ev(ptr noundef nonnull align 8 dereferenceable(217) %6) #11
  call void @llvm.lifetime.end.p0(i64 224, ptr %6) #11
  br label %46

44:                                               ; preds = %42, %13
  %45 = load ptr, ptr %3, align 8
  ret ptr %45

46:                                               ; preds = %43
  %47 = load ptr, ptr %7, align 8
  %48 = load i32, ptr %8, align 4
  %49 = insertvalue { ptr, i32 } poison, ptr %47, 0
  %50 = insertvalue { ptr, i32 } %49, i32 %48, 1
  resume { ptr, i32 } %50
}