; Function Attrs: mustprogress uwtable
define noundef ptr @ulocbld_buildULocale_77(ptr noundef %0, ptr noundef %1) local_unnamed_addr #1 personality ptr @__gxx_personality_v0 {
  %3 = alloca %"class.icu_77::Locale", align 8
  %4 = icmp eq ptr %0, null
  br i1 %4, label %5, label %6

5:                                                ; preds = %2
  store i32 1, ptr %1, align 4, !tbaa !13
  br label %17

6:                                                ; preds = %2
  call void @llvm.lifetime.start.p0(i64 224, ptr nonnull %3) #13
  call void @_ZN6icu_7713LocaleBuilder5buildER10UErrorCode(ptr dead_on_unwind nonnull writable sret(%"class.icu_77::Locale") align 8 %3, ptr noundef nonnull align 8 dereferenceable(48) %0, ptr noundef nonnull align 4 dereferenceable(4) %1)
  %7 = load i32, ptr %1, align 4, !tbaa !13
  %8 = icmp slt i32 %7, 1
  br i1 %8, label %9, label %16

9:                                                ; preds = %6
  %10 = invoke noundef ptr @_ZNK6icu_776Locale5cloneEv(ptr noundef nonnull align 8 dereferenceable(217) %3)
          to label %11 unwind label %14

11:                                               ; preds = %9
  %12 = icmp eq ptr %10, null
  br i1 %12, label %13, label %16

13:                                               ; preds = %11
  store i32 7, ptr %1, align 4, !tbaa !13
  br label %16

14:                                               ; preds = %9
  %15 = landingpad { ptr, i32 }
          cleanup
  call void @_ZN6icu_776LocaleD1Ev(ptr noundef nonnull align 8 dereferenceable(217) %3) #13
  call void @llvm.lifetime.end.p0(i64 224, ptr nonnull %3) #13
  resume { ptr, i32 } %15

16:                                               ; preds = %13, %11, %6
  %.1 = phi ptr [ null, %6 ], [ null, %13 ], [ %10, %11 ]
  call void @_ZN6icu_776LocaleD1Ev(ptr noundef nonnull align 8 dereferenceable(217) %3) #13
  call void @llvm.lifetime.end.p0(i64 224, ptr nonnull %3) #13
  br label %17

17:                                               ; preds = %16, %5
  %.0 = phi ptr [ null, %5 ], [ %.1, %16 ]
  ret ptr %.0
}